target datalayout = "e-m:e-p270:32:32-p271:32:32-p272:64:64-i64:64-i128:128-f80:128-n8:16:32:64-S128"
target triple = "x86_64-pc-linux-gnu"

; Function Attrs: alwaysinline nounwind uwtable
define internal i32 @lj_getu32(ptr noundef %0) #6 {
  %2 = alloca ptr, align 8
  store ptr %0, ptr %2, align 8, !tbaa !83
  %3 = load ptr, ptr %2, align 8, !tbaa !83
  %4 = load i32, ptr %3, align 1, !tbaa !22
  ret i32 %4
}

; Function Attrs: noinline nounwind uwtable
define internal ptr @serialize_ru124_(ptr noundef %0, ptr noundef %1, ptr noundef %2) #9 {
  %4 = alloca ptr, align 8
  %5 = alloca ptr, align 8
  %6 = alloca ptr, align 8
  %7 = alloca ptr, align 8
  %8 = alloca i32, align 4
  %9 = alloca i32, align 4
  store ptr %0, ptr %5, align 8, !tbaa !32
  store ptr %1, ptr %6, align 8, !tbaa !32
  store ptr %2, ptr %7, align 8, !tbaa !81
  call void @llvm.lifetime.start.p0(i64 4, ptr %8) #10
  %10 = load ptr, ptr %7, align 8, !tbaa !81
  %11 = load i32, ptr %10, align 4, !tbaa !17
  store i32 %11, ptr %8, align 4, !tbaa !17
  %12 = load i32, ptr %8, align 4, !tbaa !17
  %13 = icmp ne i32 %12, 255
  br i1 %13, label %14, label %30

14:                                               ; preds = %3
  %15 = load ptr, ptr %5, align 8, !tbaa !32
  %16 = load ptr, ptr %6, align 8, !tbaa !32
  %17 = icmp uge ptr %15, %16
  br i1 %17, label %18, label %19

18:                                               ; preds = %14
  store ptr null, ptr %4, align 8
  store i32 1, ptr %9, align 4
  br label %45

19:                                               ; preds = %14
  %20 = load i32, ptr %8, align 4, !tbaa !17
  %21 = and i32 %20, 31
  %22 = shl i32 %21, 8
  %23 = load ptr, ptr %5, align 8, !tbaa !32
  %24 = load i8, ptr %23, align 1, !tbaa !22
  %25 = zext i8 %24 to i32
  %26 = add i32 %22, %25
  %27 = add i32 %26, 224
  store i32 %27, ptr %8, align 4, !tbaa !17
  %28 = load ptr, ptr %5, align 8, !tbaa !32
  %29 = getelementptr inbounds nuw i8, ptr %28, i32 1
  store ptr %29, ptr %5, align 8, !tbaa !32
  br label %41

30:                                               ; preds = %3
  %31 = load ptr, ptr %5, align 8, !tbaa !32
  %32 = getelementptr inbounds i8, ptr %31, i64 4
  %33 = load ptr, ptr %6, align 8, !tbaa !32
  %34 = icmp ugt ptr %32, %33
  br i1 %34, label %35, label %36

35:                                               ; preds = %30
  store ptr null, ptr %4, align 8
  store i32 1, ptr %9, align 4
  br label %45

36:                                               ; preds = %30
  %37 = load ptr, ptr %5, align 8, !tbaa !32
  %38 = call i32 @lj_getu32(ptr noundef %37)
  store i32 %38, ptr %8, align 4, !tbaa !17
  %39 = load ptr, ptr %5, align 8, !tbaa !32
  %40 = getelementptr inbounds i8, ptr %39, i64 4
  store ptr %40, ptr %5, align 8, !tbaa !32
  br label %41

41:                                               ; preds = %36, %19
  %42 = load i32, ptr %8, align 4, !tbaa !17
  %43 = load ptr, ptr %7, align 8, !tbaa !81
  store i32 %42, ptr %43, align 4, !tbaa !17
  %44 = load ptr, ptr %5, align 8, !tbaa !32
  store ptr %44, ptr %4, align 8
  store i32 1, ptr %9, align 4
  br label %45

45:                                               ; preds = %41, %35, %18
  call void @llvm.lifetime.end.p0(i64 4, ptr %8) #10
  %46 = load ptr, ptr %4, align 8
  ret ptr %46
}