; Function Attrs: mustprogress nofree noinline norecurse nosync nounwind willreturn memory(argmem: readwrite) uwtable
define internal fastcc ptr @serialize_ru124_(ptr noundef readonly captures(address, ret: address, provenance) %0, ptr noundef readnone captures(address) %1, ptr noundef nonnull captures(none) %2) unnamed_addr #9 {
  %4 = load i32, ptr %2, align 4, !tbaa !67
  %.not = icmp eq i32 %4, 255
  br i1 %.not, label %14, label %5

5:                                                ; preds = %3
  %.not19 = icmp ult ptr %0, %1
  br i1 %.not19, label %6, label %20

6:                                                ; preds = %5
  %7 = shl i32 %4, 8
  %8 = and i32 %7, 7936
  %9 = load i8, ptr %0, align 1, !tbaa !14
  %10 = zext i8 %9 to i32
  %11 = or disjoint i32 %8, 224
  %12 = add nuw nsw i32 %11, %10
  %13 = getelementptr inbounds nuw i8, ptr %0, i64 1
  br label %19

14:                                               ; preds = %3
  %15 = getelementptr inbounds nuw i8, ptr %0, i64 4
  %16 = icmp ugt ptr %15, %1
  br i1 %16, label %20, label %17

17:                                               ; preds = %14
  %18 = load i32, ptr %0, align 1, !tbaa !14
  br label %19

19:                                               ; preds = %17, %6
  %.015 = phi ptr [ %13, %6 ], [ %15, %17 ]
  %.0 = phi i32 [ %12, %6 ], [ %18, %17 ]
  store i32 %.0, ptr %2, align 4, !tbaa !67
  br label %20

20:                                               ; preds = %14, %5, %19
  %.014 = phi ptr [ %.015, %19 ], [ null, %5 ], [ null, %14 ]
  ret ptr %.014
}